; Function Attrs: mustprogress uwtable
define hidden noundef zeroext i1 @_Z8pj_inv4dR8PJ_COORDP8PJconsts(ptr noundef nonnull align 8 dereferenceable(32) %0, ptr noundef %1) local_unnamed_addr #0 {
  %3 = alloca %union.PJ_COORD, align 8
  %4 = alloca %struct.PJ_LPZ, align 8
  %5 = alloca %union.PJ_COORD, align 8
  %6 = alloca %union.PJ_COORD, align 8
  %7 = alloca %union.PJ_COORD, align 8
  %8 = load ptr, ptr %1, align 8, !tbaa !7
  %9 = getelementptr inbounds nuw i8, ptr %8, i64 32
  %10 = load i32, ptr %9, align 8, !tbaa !37
  store i32 0, ptr %9, align 8, !tbaa !37
  %11 = getelementptr inbounds nuw i8, ptr %1, i64 372
  %12 = load i32, ptr %11, align 4, !tbaa !61
  %.not = icmp eq i32 %12, 0
  br i1 %.not, label %13, label %14

13:                                               ; preds = %2
  tail call fastcc void @_ZL11inv_prepareP8PJconstsR8PJ_COORD(ptr noundef nonnull %1, ptr noundef nonnull align 8 dereferenceable(32) %0)
  br label %14

14:                                               ; preds = %13, %2
  %15 = load double, ptr %0, align 8, !tbaa !62
  %16 = fcmp oeq double %15, 0x7FF0000000000000
  br i1 %16, label %17, label %18

17:                                               ; preds = %14
  call void @llvm.lifetime.start.p0(i64 32, ptr nonnull %3) #6
  call void @_Z16proj_coord_errorv(ptr dead_on_unwind nonnull writable sret(%union.PJ_COORD) align 8 %3)
  call void @llvm.memcpy.p0.p0.i64(ptr noundef nonnull align 8 dereferenceable(32) %0, ptr noundef nonnull align 8 dereferenceable(32) %3, i64 32, i1 false), !tbaa.struct !71
  call void @llvm.lifetime.end.p0(i64 32, ptr nonnull %3) #6
  br label %49

18:                                               ; preds = %14
  %19 = getelementptr inbounds nuw i8, ptr %1, i64 144
  %20 = load ptr, ptr %19, align 8, !tbaa !66
  %.not36 = icmp eq ptr %20, null
  br i1 %.not36, label %22, label %21

21:                                               ; preds = %18
  tail call void %20(ptr noundef nonnull align 8 dereferenceable(32) %0, ptr noundef nonnull %1)
  br label %thread-pre-split

22:                                               ; preds = %18
  %23 = getelementptr inbounds nuw i8, ptr %1, i64 128
  %24 = load ptr, ptr %23, align 8, !tbaa !64
  %.not37 = icmp eq ptr %24, null
  br i1 %.not37, label %26, label %25

25:                                               ; preds = %22
  call void @llvm.lifetime.start.p0(i64 24, ptr nonnull %4) #6
  call void %24(ptr dead_on_unwind nonnull writable sret(%struct.PJ_LPZ) align 8 %4, ptr noundef nonnull byval(%struct.PJ_XYZ) align 8 %0, ptr noundef nonnull %1)
  call void @llvm.memcpy.p0.p0.i64(ptr noundef nonnull align 8 dereferenceable(24) %0, ptr noundef nonnull align 8 dereferenceable(24) %4, i64 24, i1 false), !tbaa.struct !65
  call void @llvm.lifetime.end.p0(i64 24, ptr nonnull %4) #6
  br label %thread-pre-split

26:                                               ; preds = %22
  %27 = getelementptr inbounds nuw i8, ptr %1, i64 112
  %28 = load ptr, ptr %27, align 8, !tbaa !63
  %.not38 = icmp eq ptr %28, null
  br i1 %.not38, label %33, label %29

29:                                               ; preds = %26
  %.sroa.2.0..sroa_idx = getelementptr inbounds nuw i8, ptr %0, i64 8
  %.sroa.2.0.copyload = load double, ptr %.sroa.2.0..sroa_idx, align 8, !tbaa !3
  %30 = tail call { double, double } %28(double %15, double %.sroa.2.0.copyload, ptr noundef nonnull %1)
  %31 = extractvalue { double, double } %30, 0
  %32 = extractvalue { double, double } %30, 1
  store double %31, ptr %0, align 8, !tbaa !3
  store double %32, ptr %.sroa.2.0..sroa_idx, align 8, !tbaa !3
  br label %35

33:                                               ; preds = %26
  %34 = tail call i32 @proj_errno_set(ptr noundef nonnull %1, i32 noundef 4098)
  call void @llvm.lifetime.start.p0(i64 32, ptr nonnull %5) #6
  call void @_Z16proj_coord_errorv(ptr dead_on_unwind nonnull writable sret(%union.PJ_COORD) align 8 %5)
  call void @llvm.memcpy.p0.p0.i64(ptr noundef nonnull align 8 dereferenceable(32) %0, ptr noundef nonnull align 8 dereferenceable(32) %5, i64 32, i1 false), !tbaa.struct !71
  call void @llvm.lifetime.end.p0(i64 32, ptr nonnull %5) #6
  br label %49

thread-pre-split:                                 ; preds = %21, %25
  %.pr = load double, ptr %0, align 8, !tbaa !62
  br label %35

35:                                               ; preds = %thread-pre-split, %29
  %36 = phi double [ %.pr, %thread-pre-split ], [ %31, %29 ]
  %37 = fcmp oeq double %36, 0x7FF0000000000000
  br i1 %37, label %38, label %39

38:                                               ; preds = %35
  call void @llvm.lifetime.start.p0(i64 32, ptr nonnull %6) #6
  call void @_Z16proj_coord_errorv(ptr dead_on_unwind nonnull writable sret(%union.PJ_COORD) align 8 %6)
  call void @llvm.memcpy.p0.p0.i64(ptr noundef nonnull align 8 dereferenceable(32) %0, ptr noundef nonnull align 8 dereferenceable(32) %6, i64 32, i1 false), !tbaa.struct !71
  call void @llvm.lifetime.end.p0(i64 32, ptr nonnull %6) #6
  br label %49

39:                                               ; preds = %35
  %40 = getelementptr inbounds nuw i8, ptr %1, i64 376
  %41 = load i32, ptr %40, align 8, !tbaa !67
  %.not39 = icmp eq i32 %41, 0
  br i1 %.not39, label %42, label %43

42:                                               ; preds = %39
  call fastcc void @_ZL12inv_finalizeP8PJconstsR8PJ_COORD(ptr noundef nonnull %1, ptr noundef nonnull align 8 dereferenceable(32) %0)
  br label %43

43:                                               ; preds = %42, %39
  %44 = load ptr, ptr %1, align 8, !tbaa !7
  %45 = getelementptr inbounds nuw i8, ptr %44, i64 32
  %46 = load i32, ptr %45, align 8, !tbaa !37
  %.not40 = icmp eq i32 %46, 0
  br i1 %.not40, label %48, label %47

47:                                               ; preds = %43
  call void @llvm.lifetime.start.p0(i64 32, ptr nonnull %7) #6
  call void @_Z16proj_coord_errorv(ptr dead_on_unwind nonnull writable sret(%union.PJ_COORD) align 8 %7)
  call void @llvm.memcpy.p0.p0.i64(ptr noundef nonnull align 8 dereferenceable(32) %0, ptr noundef nonnull align 8 dereferenceable(32) %7, i64 32, i1 false), !tbaa.struct !71
  call void @llvm.lifetime.end.p0(i64 32, ptr nonnull %7) #6
  br label %49

48:                                               ; preds = %43
  store i32 %10, ptr %45, align 8, !tbaa !37
  br label %49

49:                                               ; preds = %48, %47, %38, %33, %17
  %.0 = phi i1 [ false, %17 ], [ false, %38 ], [ false, %47 ], [ true, %48 ], [ false, %33 ]
  ret i1 %.0
}